target datalayout = "e-m:e-p270:32:32-p271:32:32-p272:64:64-i64:64-i128:128-f80:128-n8:16:32:64-S128"
target triple = "x86_64-pc-linux-gnu"

%struct.Model = type { [257 x i16], [257 x i16], [257 x i8], i32, i32, i32 }
%struct.SliceContext = type { ptr, %struct.Model, %struct.Model, %struct.Model, %struct.Model, %struct.Model, %struct.PixContext, %struct.PixContext }
%struct.PixContext = type { i32, i32, [12 x i8], %struct.Model, %struct.Model, [15 x [4 x %struct.Model]], i32 }

; Function Attrs: cold nounwind optsize uwtable
define internal void @model_init(ptr noundef %0, i32 noundef %1, i32 noundef %2) #2 {
  %4 = alloca ptr, align 8
  %5 = alloca i32, align 4
  %6 = alloca i32, align 4
  store ptr %0, ptr %4, align 8, !tbaa !4
  store i32 %1, ptr %5, align 4, !tbaa !9
  store i32 %2, ptr %6, align 4, !tbaa !9
  %7 = load i32, ptr %5, align 4, !tbaa !9
  %8 = load ptr, ptr %4, align 8, !tbaa !4
  %9 = getelementptr inbounds nuw %struct.Model, ptr %8, i32 0, i32 3
  store i32 %7, ptr %9, align 4, !tbaa !20
  %10 = load i32, ptr %6, align 4, !tbaa !9
  %11 = load ptr, ptr %4, align 8, !tbaa !4
  %12 = getelementptr inbounds nuw %struct.Model, ptr %11, i32 0, i32 4
  store i32 %10, ptr %12, align 4, !tbaa !17
  %13 = load i32, ptr %5, align 4, !tbaa !9
  %14 = load i32, ptr %6, align 4, !tbaa !9
  %15 = mul nsw i32 %13, %14
  %16 = load ptr, ptr %4, align 8, !tbaa !4
  %17 = getelementptr inbounds nuw %struct.Model, ptr %16, i32 0, i32 5
  store i32 %15, ptr %17, align 4, !tbaa !19
  ret void
}

; Function Attrs: cold nounwind optsize uwtable
define internal void @slicecontext_init(ptr noundef %0, i32 noundef %1, i32 noundef %2) #2 {
  %4 = alloca ptr, align 8
  %5 = alloca i32, align 4
  %6 = alloca i32, align 4
  store ptr %0, ptr %4, align 8, !tbaa !23
  store i32 %1, ptr %5, align 4, !tbaa !9
  store i32 %2, ptr %6, align 4, !tbaa !9
  %7 = load ptr, ptr %4, align 8, !tbaa !23
  %8 = getelementptr inbounds nuw %struct.SliceContext, ptr %7, i32 0, i32 1
  call void @model_init(ptr noundef %8, i32 noundef 2, i32 noundef -1) #10
  %9 = load ptr, ptr %4, align 8, !tbaa !23
  %10 = getelementptr inbounds nuw %struct.SliceContext, ptr %9, i32 0, i32 2
  call void @model_init(ptr noundef %10, i32 noundef 2, i32 noundef -1) #10
  %11 = load ptr, ptr %4, align 8, !tbaa !23
  %12 = getelementptr inbounds nuw %struct.SliceContext, ptr %11, i32 0, i32 5
  call void @model_init(ptr noundef %12, i32 noundef 3, i32 noundef 50) #10
  %13 = load ptr, ptr %4, align 8, !tbaa !23
  %14 = getelementptr inbounds nuw %struct.SliceContext, ptr %13, i32 0, i32 4
  call void @model_init(ptr noundef %14, i32 noundef 2, i32 noundef 50) #10
  %15 = load ptr, ptr %4, align 8, !tbaa !23
  %16 = getelementptr inbounds nuw %struct.SliceContext, ptr %15, i32 0, i32 3
  call void @model_init(ptr noundef %16, i32 noundef 3, i32 noundef 15) #10
  %17 = load ptr, ptr %4, align 8, !tbaa !23
  %18 = getelementptr inbounds nuw %struct.SliceContext, ptr %17, i32 0, i32 6
  %19 = load i32, ptr %6, align 4, !tbaa !9
  call void @pixctx_init(ptr noundef %18, i32 noundef 8, i32 noundef %19, i32 noundef 0) #10
  %20 = load ptr, ptr %4, align 8, !tbaa !23
  %21 = getelementptr inbounds nuw %struct.SliceContext, ptr %20, i32 0, i32 7
  %22 = load i32, ptr %5, align 4, !tbaa !9
  %23 = icmp ne i32 %22, 0
  %24 = select i1 %23, i32 3, i32 2
  %25 = load i32, ptr %6, align 4, !tbaa !9
  %26 = load i32, ptr %5, align 4, !tbaa !9
  %27 = icmp ne i32 %26, 0
  %28 = select i1 %27, i32 1, i32 0
  call void @pixctx_init(ptr noundef %21, i32 noundef %24, i32 noundef %25, i32 noundef %28) #10
  ret void
}