; Function Attrs: cold nofree norecurse nosync nounwind optsize memory(argmem: write) uwtable
define internal fastcc void @slicecontext_init(ptr noundef writeonly captures(none) initializes((1296, 1308), (2596, 2608), (3896, 3908), (5196, 5208), (6496, 6516), (7816, 7828), (9116, 9128), (87128, 87140), (88440, 88452), (89740, 89752), (167752, 167756)) %0, i32 noundef range(i32 0, 2) %1, i32 noundef %2) unnamed_addr #5 {
  %4 = getelementptr inbounds nuw i8, ptr %0, i64 1296
  store i32 2, ptr %4, align 4, !tbaa !16
  %5 = getelementptr inbounds nuw i8, ptr %0, i64 1300
  store i32 -1, ptr %5, align 4, !tbaa !12
  %6 = getelementptr inbounds nuw i8, ptr %0, i64 1304
  store i32 -2, ptr %6, align 4, !tbaa !15
  %7 = getelementptr inbounds nuw i8, ptr %0, i64 2596
  store i32 2, ptr %7, align 4, !tbaa !16
  %8 = getelementptr inbounds nuw i8, ptr %0, i64 2600
  store i32 -1, ptr %8, align 4, !tbaa !12
  %9 = getelementptr inbounds nuw i8, ptr %0, i64 2604
  store i32 -2, ptr %9, align 4, !tbaa !15
  %10 = getelementptr inbounds nuw i8, ptr %0, i64 6496
  store i32 3, ptr %10, align 4, !tbaa !16
  %11 = getelementptr inbounds nuw i8, ptr %0, i64 6500
  store i32 50, ptr %11, align 4, !tbaa !12
  %12 = getelementptr inbounds nuw i8, ptr %0, i64 6504
  store i32 150, ptr %12, align 4, !tbaa !15
  %13 = getelementptr inbounds nuw i8, ptr %0, i64 5196
  store i32 2, ptr %13, align 4, !tbaa !16
  %14 = getelementptr inbounds nuw i8, ptr %0, i64 5200
  store i32 50, ptr %14, align 4, !tbaa !12
  %15 = getelementptr inbounds nuw i8, ptr %0, i64 5204
  store i32 100, ptr %15, align 4, !tbaa !15
  %16 = getelementptr inbounds nuw i8, ptr %0, i64 3896
  store i32 3, ptr %16, align 4, !tbaa !16
  %17 = getelementptr inbounds nuw i8, ptr %0, i64 3900
  store i32 15, ptr %17, align 4, !tbaa !12
  %18 = getelementptr inbounds nuw i8, ptr %0, i64 3904
  store i32 45, ptr %18, align 4, !tbaa !15
  %19 = getelementptr inbounds nuw i8, ptr %0, i64 6508
  tail call fastcc void @pixctx_init(ptr noundef nonnull %19, i32 noundef 8, i32 noundef %2, i32 noundef 0) #10
  %20 = getelementptr inbounds nuw i8, ptr %0, i64 87132
  %.not.not = icmp eq i32 %1, 0
  %21 = select i1 %.not.not, i32 2, i32 3
  tail call fastcc void @pixctx_init(ptr noundef nonnull %20, i32 noundef %21, i32 noundef %2, i32 noundef %1) #10
  ret void
}